target datalayout = "e-m:e-p270:32:32-p271:32:32-p272:64:64-i64:64-i128:128-f80:128-n8:16:32:64-S128"
target triple = "x86_64-pc-linux-gnu"

%struct.btTriangle = type { %class.btVector3, %class.btVector3, %class.btVector3, i32, i32 }
%class.btVector3 = type { [4 x float] }
%class.btTriangleBuffer = type { %class.btTriangleCallback, %class.btAlignedObjectArray }
%class.btTriangleCallback = type { ptr }
%class.btAlignedObjectArray = type <{ [4 x i8], i32, i32, [4 x i8], ptr, i8, [7 x i8] }>

; Function Attrs: mustprogress uwtable
define linkonce_odr dso_local void @_ZN18btAlignedAllocatorI10btTriangleLj16EE10deallocateEPS0_(ptr noundef nonnull align 1 dereferenceable(1) %0, ptr noundef %1) #2 comdat align 2 {
  %3 = alloca ptr, align 8
  %4 = alloca ptr, align 8
  store ptr %0, ptr %3, align 8, !tbaa !39
  store ptr %1, ptr %4, align 8, !tbaa !21
  %5 = load ptr, ptr %4, align 8, !tbaa !21
  call void @_Z21btAlignedFreeInternalPv(ptr noundef %5)
  ret void
}

; Function Attrs: mustprogress uwtable
define linkonce_odr dso_local noundef ptr @_ZN18btAlignedAllocatorI10btTriangleLj16EE8allocateEiPPKS0_(ptr noundef nonnull align 1 dereferenceable(1) %0, i32 noundef %1, ptr noundef %2) #2 comdat align 2 {
  %4 = alloca ptr, align 8
  %5 = alloca i32, align 4
  %6 = alloca ptr, align 8
  store ptr %0, ptr %4, align 8, !tbaa !39
  store i32 %1, ptr %5, align 4, !tbaa !9
  store ptr %2, ptr %6, align 8, !tbaa !42
  %7 = load i32, ptr %5, align 4, !tbaa !9
  %8 = sext i32 %7 to i64
  %9 = mul i64 56, %8
  %10 = call noundef ptr @_Z22btAlignedAllocInternalmi(i64 noundef %9, i32 noundef 16)
  ret ptr %10
}

; Function Attrs: inlinehint mustprogress uwtable
define linkonce_odr dso_local void @_ZN20btAlignedObjectArrayI10btTriangleE10deallocateEv(ptr noundef nonnull align 8 dereferenceable(25) %0) #4 comdat align 2 {
  %2 = alloca ptr, align 8
  store ptr %0, ptr %2, align 8, !tbaa !23
  %3 = load ptr, ptr %2, align 8
  %4 = getelementptr inbounds nuw %class.btAlignedObjectArray, ptr %3, i32 0, i32 4
  %5 = load ptr, ptr %4, align 8, !tbaa !25
  %6 = icmp ne ptr %5, null
  br i1 %6, label %7, label %16

7:                                                ; preds = %1
  %8 = getelementptr inbounds nuw %class.btAlignedObjectArray, ptr %3, i32 0, i32 5
  %9 = load i8, ptr %8, align 8, !tbaa !35, !range !36, !noundef !37
  %10 = trunc i8 %9 to i1
  br i1 %10, label %11, label %14

11:                                               ; preds = %7
  %12 = getelementptr inbounds nuw %class.btAlignedObjectArray, ptr %3, i32 0, i32 4
  %13 = load ptr, ptr %12, align 8, !tbaa !25
  call void @_ZN18btAlignedAllocatorI10btTriangleLj16EE10deallocateEPS0_(ptr noundef nonnull align 1 dereferenceable(1) %3, ptr noundef %13)
  br label %14

14:                                               ; preds = %11, %7
  %15 = getelementptr inbounds nuw %class.btAlignedObjectArray, ptr %3, i32 0, i32 4
  store ptr null, ptr %15, align 8, !tbaa !25
  br label %16

16:                                               ; preds = %14, %1
  ret void
}

; Function Attrs: inlinehint mustprogress nounwind uwtable
define linkonce_odr dso_local void @_ZN20btAlignedObjectArrayI10btTriangleE7destroyEii(ptr noundef nonnull align 8 dereferenceable(25) %0, i32 noundef %1, i32 noundef %2) #6 comdat align 2 {
  %4 = alloca ptr, align 8
  %5 = alloca i32, align 4
  %6 = alloca i32, align 4
  %7 = alloca i32, align 4
  store ptr %0, ptr %4, align 8, !tbaa !23
  store i32 %1, ptr %5, align 4, !tbaa !9
  store i32 %2, ptr %6, align 4, !tbaa !9
  call void @llvm.lifetime.start.p0(i64 4, ptr %7) #11
  %8 = load i32, ptr %5, align 4, !tbaa !9
  store i32 %8, ptr %7, align 4, !tbaa !9
  br label %9

9:                                                ; preds = %14, %3
  %10 = load i32, ptr %7, align 4, !tbaa !9
  %11 = load i32, ptr %6, align 4, !tbaa !9
  %12 = icmp slt i32 %10, %11
  br i1 %12, label %13, label %17

13:                                               ; preds = %9
  br label %14

14:                                               ; preds = %13
  %15 = load i32, ptr %7, align 4, !tbaa !9
  %16 = add nsw i32 %15, 1
  store i32 %16, ptr %7, align 4, !tbaa !9
  br label %9, !llvm.loop !33

17:                                               ; preds = %9
  call void @llvm.lifetime.end.p0(i64 4, ptr %7) #11
  ret void
}

; Function Attrs: inlinehint mustprogress nounwind uwtable
define linkonce_odr dso_local void @_ZNK20btAlignedObjectArrayI10btTriangleE4copyEiiPS0_(ptr noundef nonnull align 8 dereferenceable(25) %0, i32 noundef %1, i32 noundef %2, ptr noundef %3) #6 comdat align 2 {
  %5 = alloca ptr, align 8
  %6 = alloca i32, align 4
  %7 = alloca i32, align 4
  %8 = alloca ptr, align 8
  %9 = alloca i32, align 4
  store ptr %0, ptr %5, align 8, !tbaa !23
  store i32 %1, ptr %6, align 4, !tbaa !9
  store i32 %2, ptr %7, align 4, !tbaa !9
  store ptr %3, ptr %8, align 8, !tbaa !21
  %10 = load ptr, ptr %5, align 8
  call void @llvm.lifetime.start.p0(i64 4, ptr %9) #11
  %11 = load i32, ptr %6, align 4, !tbaa !9
  store i32 %11, ptr %9, align 4, !tbaa !9
  br label %12

12:                                               ; preds = %26, %4
  %13 = load i32, ptr %9, align 4, !tbaa !9
  %14 = load i32, ptr %7, align 4, !tbaa !9
  %15 = icmp slt i32 %13, %14
  br i1 %15, label %16, label %29

16:                                               ; preds = %12
  %17 = load ptr, ptr %8, align 8, !tbaa !21
  %18 = load i32, ptr %9, align 4, !tbaa !9
  %19 = sext i32 %18 to i64
  %20 = getelementptr inbounds %struct.btTriangle, ptr %17, i64 %19
  %21 = getelementptr inbounds nuw %class.btAlignedObjectArray, ptr %10, i32 0, i32 4
  %22 = load ptr, ptr %21, align 8, !tbaa !25
  %23 = load i32, ptr %9, align 4, !tbaa !9
  %24 = sext i32 %23 to i64
  %25 = getelementptr inbounds %struct.btTriangle, ptr %22, i64 %24
  call void @llvm.memcpy.p0.p0.i64(ptr align 4 %20, ptr align 4 %25, i64 56, i1 false), !tbaa.struct !30
  br label %26

26:                                               ; preds = %16
  %27 = load i32, ptr %9, align 4, !tbaa !9
  %28 = add nsw i32 %27, 1
  store i32 %28, ptr %9, align 4, !tbaa !9
  br label %12, !llvm.loop !41

29:                                               ; preds = %12
  call void @llvm.lifetime.end.p0(i64 4, ptr %9) #11
  ret void
}

; Function Attrs: inlinehint mustprogress uwtable
define linkonce_odr dso_local noundef ptr @_ZN20btAlignedObjectArrayI10btTriangleE8allocateEi(ptr noundef nonnull align 8 dereferenceable(25) %0, i32 noundef %1) #4 comdat align 2 {
  %3 = alloca ptr, align 8
  %4 = alloca ptr, align 8
  %5 = alloca i32, align 4
  store ptr %0, ptr %4, align 8, !tbaa !23
  store i32 %1, ptr %5, align 4, !tbaa !9
  %6 = load ptr, ptr %4, align 8
  %7 = load i32, ptr %5, align 4, !tbaa !9
  %8 = icmp ne i32 %7, 0
  br i1 %8, label %9, label %12

9:                                                ; preds = %2
  %10 = load i32, ptr %5, align 4, !tbaa !9
  %11 = call noundef ptr @_ZN18btAlignedAllocatorI10btTriangleLj16EE8allocateEiPPKS0_(ptr noundef nonnull align 1 dereferenceable(1) %6, i32 noundef %10, ptr noundef null)
  store ptr %11, ptr %3, align 8
  br label %13

12:                                               ; preds = %2
  store ptr null, ptr %3, align 8
  br label %13

13:                                               ; preds = %12, %9
  %14 = load ptr, ptr %3, align 8
  ret ptr %14
}

; Function Attrs: inlinehint mustprogress uwtable
define linkonce_odr dso_local void @_ZN20btAlignedObjectArrayI10btTriangleE7reserveEi(ptr noundef nonnull align 8 dereferenceable(25) %0, i32 noundef %1) #4 comdat align 2 {
  %3 = alloca ptr, align 8
  %4 = alloca i32, align 4
  %5 = alloca ptr, align 8
  store ptr %0, ptr %3, align 8, !tbaa !23
  store i32 %1, ptr %4, align 4, !tbaa !9
  %6 = load ptr, ptr %3, align 8
  %7 = call noundef i32 @_ZNK20btAlignedObjectArrayI10btTriangleE8capacityEv(ptr noundef nonnull align 8 dereferenceable(25) %6)
  %8 = load i32, ptr %4, align 4, !tbaa !9
  %9 = icmp slt i32 %7, %8
  br i1 %9, label %10, label %21

10:                                               ; preds = %2
  call void @llvm.lifetime.start.p0(i64 8, ptr %5) #11
  %11 = load i32, ptr %4, align 4, !tbaa !9
  %12 = call noundef ptr @_ZN20btAlignedObjectArrayI10btTriangleE8allocateEi(ptr noundef nonnull align 8 dereferenceable(25) %6, i32 noundef %11)
  store ptr %12, ptr %5, align 8, !tbaa !21
  %13 = call noundef i32 @_ZNK20btAlignedObjectArrayI10btTriangleE4sizeEv(ptr noundef nonnull align 8 dereferenceable(25) %6)
  %14 = load ptr, ptr %5, align 8, !tbaa !21
  call void @_ZNK20btAlignedObjectArrayI10btTriangleE4copyEiiPS0_(ptr noundef nonnull align 8 dereferenceable(25) %6, i32 noundef 0, i32 noundef %13, ptr noundef %14)
  %15 = call noundef i32 @_ZNK20btAlignedObjectArrayI10btTriangleE4sizeEv(ptr noundef nonnull align 8 dereferenceable(25) %6)
  call void @_ZN20btAlignedObjectArrayI10btTriangleE7destroyEii(ptr noundef nonnull align 8 dereferenceable(25) %6, i32 noundef 0, i32 noundef %15)
  call void @_ZN20btAlignedObjectArrayI10btTriangleE10deallocateEv(ptr noundef nonnull align 8 dereferenceable(25) %6)
  %16 = getelementptr inbounds nuw %class.btAlignedObjectArray, ptr %6, i32 0, i32 5
  store i8 1, ptr %16, align 8, !tbaa !35
  %17 = load ptr, ptr %5, align 8, !tbaa !21
  %18 = getelementptr inbounds nuw %class.btAlignedObjectArray, ptr %6, i32 0, i32 4
  store ptr %17, ptr %18, align 8, !tbaa !25
  %19 = load i32, ptr %4, align 4, !tbaa !9
  %20 = getelementptr inbounds nuw %class.btAlignedObjectArray, ptr %6, i32 0, i32 2
  store i32 %19, ptr %20, align 8, !tbaa !38
  call void @llvm.lifetime.end.p0(i64 8, ptr %5) #11
  br label %21

21:                                               ; preds = %10, %2
  ret void
}

; Function Attrs: inlinehint mustprogress nounwind uwtable
define linkonce_odr dso_local noundef i32 @_ZN20btAlignedObjectArrayI10btTriangleE9allocSizeEi(ptr noundef nonnull align 8 dereferenceable(25) %0, i32 noundef %1) #6 comdat align 2 {
  %3 = alloca ptr, align 8
  %4 = alloca i32, align 4
  store ptr %0, ptr %3, align 8, !tbaa !23
  store i32 %1, ptr %4, align 4, !tbaa !9
  %5 = load i32, ptr %4, align 4, !tbaa !9
  %6 = icmp ne i32 %5, 0
  br i1 %6, label %7, label %10

7:                                                ; preds = %2
  %8 = load i32, ptr %4, align 4, !tbaa !9
  %9 = mul nsw i32 %8, 2
  br label %11

10:                                               ; preds = %2
  br label %11

11:                                               ; preds = %10, %7
  %12 = phi i32 [ %9, %7 ], [ 1, %10 ]
  ret i32 %12
}

; Function Attrs: inlinehint mustprogress nounwind uwtable
define linkonce_odr dso_local noundef i32 @_ZNK20btAlignedObjectArrayI10btTriangleE8capacityEv(ptr noundef nonnull align 8 dereferenceable(25) %0) #6 comdat align 2 {
  %2 = alloca ptr, align 8
  store ptr %0, ptr %2, align 8, !tbaa !23
  %3 = load ptr, ptr %2, align 8
  %4 = getelementptr inbounds nuw %class.btAlignedObjectArray, ptr %3, i32 0, i32 2
  %5 = load i32, ptr %4, align 8, !tbaa !38
  ret i32 %5
}

; Function Attrs: inlinehint mustprogress nounwind uwtable
define linkonce_odr dso_local noundef i32 @_ZNK20btAlignedObjectArrayI10btTriangleE4sizeEv(ptr noundef nonnull align 8 dereferenceable(25) %0) #6 comdat align 2 {
  %2 = alloca ptr, align 8
  store ptr %0, ptr %2, align 8, !tbaa !23
  %3 = load ptr, ptr %2, align 8
  %4 = getelementptr inbounds nuw %class.btAlignedObjectArray, ptr %3, i32 0, i32 1
  %5 = load i32, ptr %4, align 4, !tbaa !29
  ret i32 %5
}

; Function Attrs: inlinehint mustprogress nounwind uwtable
define linkonce_odr dso_local void @_ZN9btVector3C2Ev(ptr noundef nonnull align 4 dereferenceable(16) %0) unnamed_addr #6 comdat align 2 {
  %2 = alloca ptr, align 8
  store ptr %0, ptr %2, align 8, !tbaa !14
  ret void
}

; Function Attrs: inlinehint mustprogress uwtable
define linkonce_odr dso_local void @_ZN20btAlignedObjectArrayI10btTriangleE9push_backERKS0_(ptr noundef nonnull align 8 dereferenceable(25) %0, ptr noundef nonnull align 4 dereferenceable(56) %1) #4 comdat align 2 {
  %3 = alloca ptr, align 8
  %4 = alloca ptr, align 8
  %5 = alloca i32, align 4
  store ptr %0, ptr %3, align 8, !tbaa !23
  store ptr %1, ptr %4, align 8, !tbaa !21
  %6 = load ptr, ptr %3, align 8
  call void @llvm.lifetime.start.p0(i64 4, ptr %5) #11
  %7 = call noundef i32 @_ZNK20btAlignedObjectArrayI10btTriangleE4sizeEv(ptr noundef nonnull align 8 dereferenceable(25) %6)
  store i32 %7, ptr %5, align 4, !tbaa !9
  %8 = load i32, ptr %5, align 4, !tbaa !9
  %9 = call noundef i32 @_ZNK20btAlignedObjectArrayI10btTriangleE8capacityEv(ptr noundef nonnull align 8 dereferenceable(25) %6)
  %10 = icmp eq i32 %8, %9
  br i1 %10, label %11, label %14

11:                                               ; preds = %2
  %12 = call noundef i32 @_ZNK20btAlignedObjectArrayI10btTriangleE4sizeEv(ptr noundef nonnull align 8 dereferenceable(25) %6)
  %13 = call noundef i32 @_ZN20btAlignedObjectArrayI10btTriangleE9allocSizeEi(ptr noundef nonnull align 8 dereferenceable(25) %6, i32 noundef %12)
  call void @_ZN20btAlignedObjectArrayI10btTriangleE7reserveEi(ptr noundef nonnull align 8 dereferenceable(25) %6, i32 noundef %13)
  br label %14

14:                                               ; preds = %11, %2
  %15 = getelementptr inbounds nuw %class.btAlignedObjectArray, ptr %6, i32 0, i32 4
  %16 = load ptr, ptr %15, align 8, !tbaa !25
  %17 = getelementptr inbounds nuw %class.btAlignedObjectArray, ptr %6, i32 0, i32 1
  %18 = load i32, ptr %17, align 4, !tbaa !29
  %19 = sext i32 %18 to i64
  %20 = getelementptr inbounds %struct.btTriangle, ptr %16, i64 %19
  %21 = load ptr, ptr %4, align 8, !tbaa !21
  call void @llvm.memcpy.p0.p0.i64(ptr align 4 %20, ptr align 4 %21, i64 56, i1 false), !tbaa.struct !30
  %22 = getelementptr inbounds nuw %class.btAlignedObjectArray, ptr %6, i32 0, i32 1
  %23 = load i32, ptr %22, align 4, !tbaa !29
  %24 = add nsw i32 %23, 1
  store i32 %24, ptr %22, align 4, !tbaa !29
  call void @llvm.lifetime.end.p0(i64 4, ptr %5) #11
  ret void
}

; Function Attrs: inlinehint mustprogress uwtable
define linkonce_odr dso_local void @_ZN10btTriangleC2Ev(ptr noundef nonnull align 4 dereferenceable(56) %0) unnamed_addr #4 comdat align 2 {
  %2 = alloca ptr, align 8
  store ptr %0, ptr %2, align 8, !tbaa !21
  %3 = load ptr, ptr %2, align 8
  %4 = getelementptr inbounds nuw %struct.btTriangle, ptr %3, i32 0, i32 0
  call void @_ZN9btVector3C2Ev(ptr noundef nonnull align 4 dereferenceable(16) %4)
  %5 = getelementptr inbounds nuw %struct.btTriangle, ptr %3, i32 0, i32 1
  call void @_ZN9btVector3C2Ev(ptr noundef nonnull align 4 dereferenceable(16) %5)
  %6 = getelementptr inbounds nuw %struct.btTriangle, ptr %3, i32 0, i32 2
  call void @_ZN9btVector3C2Ev(ptr noundef nonnull align 4 dereferenceable(16) %6)
  ret void
}

; Function Attrs: mustprogress uwtable
define dso_local void @_ZN16btTriangleBuffer15processTriangleEP9btVector3ii(ptr noundef nonnull align 8 dereferenceable(40) %0, ptr noundef %1, i32 noundef %2, i32 noundef %3) unnamed_addr #2 align 2 {
  %5 = alloca ptr, align 8
  %6 = alloca ptr, align 8
  %7 = alloca i32, align 4
  %8 = alloca i32, align 4
  %9 = alloca %struct.btTriangle, align 4
  store ptr %0, ptr %5, align 8, !tbaa !12
  store ptr %1, ptr %6, align 8, !tbaa !14
  store i32 %2, ptr %7, align 4, !tbaa !9
  store i32 %3, ptr %8, align 4, !tbaa !9
  %10 = load ptr, ptr %5, align 8
  call void @llvm.lifetime.start.p0(i64 56, ptr %9) #11
  call void @_ZN10btTriangleC2Ev(ptr noundef nonnull align 4 dereferenceable(56) %9)
  %11 = load ptr, ptr %6, align 8, !tbaa !14
  %12 = getelementptr inbounds %class.btVector3, ptr %11, i64 0
  %13 = getelementptr inbounds nuw %struct.btTriangle, ptr %9, i32 0, i32 0
  call void @llvm.memcpy.p0.p0.i64(ptr align 4 %13, ptr align 4 %12, i64 16, i1 false), !tbaa.struct !16
  %14 = load ptr, ptr %6, align 8, !tbaa !14
  %15 = getelementptr inbounds %class.btVector3, ptr %14, i64 1
  %16 = getelementptr inbounds nuw %struct.btTriangle, ptr %9, i32 0, i32 1
  call void @llvm.memcpy.p0.p0.i64(ptr align 4 %16, ptr align 4 %15, i64 16, i1 false), !tbaa.struct !16
  %17 = load ptr, ptr %6, align 8, !tbaa !14
  %18 = getelementptr inbounds %class.btVector3, ptr %17, i64 2
  %19 = getelementptr inbounds nuw %struct.btTriangle, ptr %9, i32 0, i32 2
  call void @llvm.memcpy.p0.p0.i64(ptr align 4 %19, ptr align 4 %18, i64 16, i1 false), !tbaa.struct !16
  %20 = load i32, ptr %7, align 4, !tbaa !9
  %21 = getelementptr inbounds nuw %struct.btTriangle, ptr %9, i32 0, i32 3
  store i32 %20, ptr %21, align 4, !tbaa !17
  %22 = load i32, ptr %8, align 4, !tbaa !9
  %23 = getelementptr inbounds nuw %struct.btTriangle, ptr %9, i32 0, i32 4
  store i32 %22, ptr %23, align 4, !tbaa !20
  %24 = getelementptr inbounds nuw %class.btTriangleBuffer, ptr %10, i32 0, i32 1
  call void @_ZN20btAlignedObjectArrayI10btTriangleE9push_backERKS0_(ptr noundef nonnull align 8 dereferenceable(25) %24, ptr noundef nonnull align 4 dereferenceable(56) %9)
  call void @llvm.lifetime.end.p0(i64 56, ptr %9) #11
  ret void
}