; Function Attrs: mustprogress uwtable
define dso_local void @_ZN16btTriangleBuffer15processTriangleEP9btVector3ii(ptr noundef nonnull align 8 captures(none) dereferenceable(40) %0, ptr noundef readonly captures(none) %1, i32 noundef %2, i32 noundef %3) unnamed_addr #0 align 2 {
  %.sroa.0 = alloca { %class.btVector3, %class.btVector3, %class.btVector3 }, align 8
  call void @llvm.lifetime.start.p0(i64 48, ptr nonnull %.sroa.0)
  call void @llvm.memcpy.p0.p0.i64(ptr noundef nonnull align 8 dereferenceable(16) %.sroa.0, ptr noundef nonnull align 4 dereferenceable(16) %1, i64 16, i1 false), !tbaa.struct !4
  %5 = getelementptr inbounds nuw i8, ptr %1, i64 16
  %.sroa.0.16..sroa_idx = getelementptr inbounds nuw i8, ptr %.sroa.0, i64 16
  call void @llvm.memcpy.p0.p0.i64(ptr noundef nonnull align 8 dereferenceable(16) %.sroa.0.16..sroa_idx, ptr noundef nonnull align 4 dereferenceable(16) %5, i64 16, i1 false), !tbaa.struct !4
  %6 = getelementptr inbounds nuw i8, ptr %1, i64 32
  %.sroa.0.32..sroa_idx = getelementptr inbounds nuw i8, ptr %.sroa.0, i64 32
  call void @llvm.memcpy.p0.p0.i64(ptr noundef nonnull align 8 dereferenceable(16) %.sroa.0.32..sroa_idx, ptr noundef nonnull align 4 dereferenceable(16) %6, i64 16, i1 false), !tbaa.struct !4
  %7 = getelementptr inbounds nuw i8, ptr %0, i64 12
  %8 = load i32, ptr %7, align 4, !tbaa !8
  %9 = getelementptr inbounds nuw i8, ptr %0, i64 16
  %10 = load i32, ptr %9, align 8, !tbaa !15
  %11 = icmp eq i32 %8, %10
  br i1 %11, label %12, label %_ZN20btAlignedObjectArrayI10btTriangleE9push_backERKS0_.exit

12:                                               ; preds = %4
  %.not.i.i = icmp eq i32 %8, 0
  %13 = shl nsw i32 %8, 1
  %14 = select i1 %.not.i.i, i32 1, i32 %13
  %15 = icmp slt i32 %8, %14
  br i1 %15, label %16, label %_ZN20btAlignedObjectArrayI10btTriangleE9push_backERKS0_.exit

16:                                               ; preds = %12
  %.not.i.i.i = icmp eq i32 %14, 0
  br i1 %.not.i.i.i, label %_ZN20btAlignedObjectArrayI10btTriangleE8allocateEi.exit.i.i, label %17

17:                                               ; preds = %16
  %18 = sext i32 %14 to i64
  %19 = mul nsw i64 %18, 56
  %20 = tail call noundef ptr @_Z22btAlignedAllocInternalmi(i64 noundef %19, i32 noundef 16)
  %.pre.i = load i32, ptr %7, align 4, !tbaa !8
  br label %_ZN20btAlignedObjectArrayI10btTriangleE8allocateEi.exit.i.i

_ZN20btAlignedObjectArrayI10btTriangleE8allocateEi.exit.i.i: ; preds = %17, %16
  %21 = phi i32 [ %.pre.i, %17 ], [ %8, %16 ]
  %.0.i.i.i = phi ptr [ %20, %17 ], [ null, %16 ]
  %22 = icmp sgt i32 %21, 0
  br i1 %22, label %.lr.ph.i.i.i, label %_ZNK20btAlignedObjectArrayI10btTriangleE4copyEiiPS0_.exit.i.i

.lr.ph.i.i.i:                                     ; preds = %_ZN20btAlignedObjectArrayI10btTriangleE8allocateEi.exit.i.i
  %23 = getelementptr inbounds nuw i8, ptr %0, i64 24
  %wide.trip.count.i.i.i = zext nneg i32 %21 to i64
  br label %24

24:                                               ; preds = %24, %.lr.ph.i.i.i
  %indvars.iv.i.i.i = phi i64 [ 0, %.lr.ph.i.i.i ], [ %indvars.iv.next.i.i.i, %24 ]
  %25 = getelementptr inbounds nuw %struct.btTriangle, ptr %.0.i.i.i, i64 %indvars.iv.i.i.i
  %26 = load ptr, ptr %23, align 8, !tbaa !16
  %27 = getelementptr inbounds nuw %struct.btTriangle, ptr %26, i64 %indvars.iv.i.i.i
  tail call void @llvm.memcpy.p0.p0.i64(ptr noundef nonnull align 4 dereferenceable(56) %25, ptr noundef nonnull align 4 dereferenceable(56) %27, i64 56, i1 false), !tbaa.struct !17
  %indvars.iv.next.i.i.i = add nuw nsw i64 %indvars.iv.i.i.i, 1
  %exitcond.not.i.i.i = icmp eq i64 %indvars.iv.next.i.i.i, %wide.trip.count.i.i.i
  br i1 %exitcond.not.i.i.i, label %_ZNK20btAlignedObjectArrayI10btTriangleE4copyEiiPS0_.exit.i.i, label %24, !llvm.loop !19

_ZNK20btAlignedObjectArrayI10btTriangleE4copyEiiPS0_.exit.i.i: ; preds = %24, %_ZN20btAlignedObjectArrayI10btTriangleE8allocateEi.exit.i.i
  %28 = getelementptr inbounds nuw i8, ptr %0, i64 24
  %29 = load ptr, ptr %28, align 8, !tbaa !16
  %.not.i5.i.i = icmp eq ptr %29, null
  br i1 %.not.i5.i.i, label %_ZN20btAlignedObjectArrayI10btTriangleE10deallocateEv.exit.i.i, label %30

30:                                               ; preds = %_ZNK20btAlignedObjectArrayI10btTriangleE4copyEiiPS0_.exit.i.i
  %31 = getelementptr inbounds nuw i8, ptr %0, i64 32
  %32 = load i8, ptr %31, align 8, !tbaa !21, !range !22, !noundef !23
  %33 = trunc nuw i8 %32 to i1
  br i1 %33, label %34, label %_ZN20btAlignedObjectArrayI10btTriangleE10deallocateEv.exit.i.i

34:                                               ; preds = %30
  tail call void @_Z21btAlignedFreeInternalPv(ptr noundef nonnull %29)
  br label %_ZN20btAlignedObjectArrayI10btTriangleE10deallocateEv.exit.i.i

_ZN20btAlignedObjectArrayI10btTriangleE10deallocateEv.exit.i.i: ; preds = %34, %30, %_ZNK20btAlignedObjectArrayI10btTriangleE4copyEiiPS0_.exit.i.i
  %35 = getelementptr inbounds nuw i8, ptr %0, i64 32
  store i8 1, ptr %35, align 8, !tbaa !21
  store ptr %.0.i.i.i, ptr %28, align 8, !tbaa !16
  store i32 %14, ptr %9, align 8, !tbaa !15
  %.pre2.i = load i32, ptr %7, align 4, !tbaa !8
  br label %_ZN20btAlignedObjectArrayI10btTriangleE9push_backERKS0_.exit

_ZN20btAlignedObjectArrayI10btTriangleE9push_backERKS0_.exit: ; preds = %4, %12, %_ZN20btAlignedObjectArrayI10btTriangleE10deallocateEv.exit.i.i
  %36 = phi i32 [ %.pre2.i, %_ZN20btAlignedObjectArrayI10btTriangleE10deallocateEv.exit.i.i ], [ %8, %12 ], [ %8, %4 ]
  %37 = getelementptr inbounds nuw i8, ptr %0, i64 24
  %38 = load ptr, ptr %37, align 8, !tbaa !16
  %39 = sext i32 %36 to i64
  %40 = getelementptr inbounds %struct.btTriangle, ptr %38, i64 %39
  call void @llvm.memcpy.p0.p0.i64(ptr noundef nonnull align 4 dereferenceable(48) %40, ptr noundef nonnull align 8 dereferenceable(48) %.sroa.0, i64 48, i1 false), !tbaa.struct !17
  %.sroa.6.0..sroa_idx = getelementptr inbounds nuw i8, ptr %40, i64 48
  store i32 %2, ptr %.sroa.6.0..sroa_idx, align 4, !tbaa !18
  %.sroa.7.0..sroa_idx = getelementptr inbounds nuw i8, ptr %40, i64 52
  store i32 %3, ptr %.sroa.7.0..sroa_idx, align 4, !tbaa !18
  %41 = load i32, ptr %7, align 4, !tbaa !8
  %42 = add nsw i32 %41, 1
  store i32 %42, ptr %7, align 4, !tbaa !8
  call void @llvm.lifetime.end.p0(i64 48, ptr nonnull %.sroa.0)
  ret void
}